; Function Attrs: mustprogress nofree norecurse nounwind sspstrong willreturn memory(readwrite, inaccessiblemem: none) uwtable
define dso_local void @ramblock_recv_bitmap_set(ptr noundef readonly captures(none) %rb, ptr noundef %host_addr) local_unnamed_addr #3 {
entry:
  %0 = getelementptr i8, ptr %rb, i64 24
  %rb.val = load ptr, ptr %0, align 8
  %sub.ptr.lhs.cast.i = ptrtoint ptr %host_addr to i64
  %sub.ptr.rhs.cast.i = ptrtoint ptr %rb.val to i64
  %sub.ptr.sub.i = sub i64 %sub.ptr.lhs.cast.i, %sub.ptr.rhs.cast.i
  %shr.i = lshr i64 %sub.ptr.sub.i, 12
  %receivedmap = getelementptr inbounds nuw i8, ptr %rb, i64 392
  %1 = load ptr, ptr %receivedmap, align 8
  %rem.i = and i64 %shr.i, 63
  %shl.i = shl nuw i64 1, %rem.i
  %div2.i = lshr i64 %sub.ptr.sub.i, 18
  %add.ptr.i = getelementptr i64, ptr %1, i64 %div2.i
  %2 = atomicrmw or ptr %add.ptr.i, i64 %shl.i seq_cst, align 8
  ret void
}